target datalayout = "e-m:e-p270:32:32-p271:32:32-p272:64:64-i64:64-i128:128-f80:128-n8:16:32:64-S128"
target triple = "x86_64-pc-linux-gnu"

@.str.245 = private unnamed_addr constant [29 x i8] c"Parallel Virtual File System\00", align 1
@.str.246 = private unnamed_addr constant [5 x i8] c"PVFS\00", align 1
@.str.247 = private unnamed_addr constant [5 x i8] c"pvfs\00", align 1
@proto_pvfs = internal global i32 0, align 4
@pvfs_handle = internal global ptr null, align 8
@pvfs2_io_tracking_value_table = internal global ptr null, align 8
@.str.248 = private unnamed_addr constant [10 x i8] c"desegment\00", align 1
@.str.249 = private unnamed_addr constant [56 x i8] c"Reassemble PVFS messages spanning multiple TCP segments\00", align 1
@.str.250 = private unnamed_addr constant [205 x i8] c"Whether the PVFS dissector should reassemble messages spanning multiple TCP segments. To use this option, you must also enable \22Allow subdissectors to reassemble TCP streams\22 in the TCP protocol settings.\00", align 1
@pvfs_desegment = internal global i8 1, align 1

; Function Attrs: null_pointer_is_valid sspstrong uwtable
define hidden void @proto_register_pvfs() #0 {
  %1 = alloca ptr, align 8
  %2 = alloca ptr, align 8
  call void @llvm.lifetime.start.p0(i64 8, ptr %1) #10
  call void @llvm.lifetime.start.p0(i64 8, ptr %2) #10
  %3 = call i32 @proto_register_protocol(ptr noundef @.str.245, ptr noundef @.str.246, ptr noundef @.str.247)
  store i32 %3, ptr @proto_pvfs, align 4
  %4 = load i32, ptr @proto_pvfs, align 4
  %5 = call ptr @register_dissector(ptr noundef @.str.247, ptr noundef @dissect_pvfs, i32 noundef %4)
  store ptr %5, ptr @pvfs_handle, align 8
  %6 = load i32, ptr @proto_pvfs, align 4
  call void @proto_register_field_array(i32 noundef %6, ptr noundef @proto_register_pvfs.hf, i32 noundef 120)
  call void @proto_register_subtree_array(ptr noundef @proto_register_pvfs.ett, i32 noundef 16)
  %7 = load i32, ptr @proto_pvfs, align 4
  %8 = call ptr @expert_register_protocol(i32 noundef %7)
  store ptr %8, ptr %2, align 8
  %9 = load ptr, ptr %2, align 8
  call void @expert_register_field_array(ptr noundef %9, ptr noundef @proto_register_pvfs.ei, i32 noundef 1)
  %10 = call ptr @wmem_epan_scope()
  %11 = call ptr @wmem_file_scope()
  %12 = call noalias ptr @wmem_map_new_autoreset(ptr noundef %10, ptr noundef %11, ptr noundef @pvfs2_io_tracking_hash, ptr noundef @pvfs2_io_tracking_equal)
  store ptr %12, ptr @pvfs2_io_tracking_value_table, align 8
  %13 = load i32, ptr @proto_pvfs, align 4
  %14 = call ptr @prefs_register_protocol(i32 noundef %13, ptr noundef null)
  store ptr %14, ptr %1, align 8
  %15 = load ptr, ptr %1, align 8
  call void @prefs_register_bool_preference(ptr noundef %15, ptr noundef @.str.248, ptr noundef @.str.249, ptr noundef @.str.250, ptr noundef @pvfs_desegment)
  call void @llvm.lifetime.end.p0(i64 8, ptr %2) #10
  call void @llvm.lifetime.end.p0(i64 8, ptr %1) #10
  ret void
}