; Function Attrs: null_pointer_is_valid sspstrong uwtable
define hidden void @proto_register_pvfs() local_unnamed_addr #0 {
  %1 = tail call i32 @proto_register_protocol(ptr noundef nonnull @.str.245, ptr noundef nonnull @.str.246, ptr noundef nonnull @.str.247)
  store i32 %1, ptr @proto_pvfs, align 4
  %2 = tail call ptr @register_dissector(ptr noundef nonnull @.str.247, ptr noundef nonnull @dissect_pvfs, i32 noundef %1)
  store ptr %2, ptr @pvfs_handle, align 8
  %3 = load i32, ptr @proto_pvfs, align 4
  tail call void @proto_register_field_array(i32 noundef %3, ptr noundef nonnull @proto_register_pvfs.hf, i32 noundef 120)
  tail call void @proto_register_subtree_array(ptr noundef nonnull @proto_register_pvfs.ett, i32 noundef 16)
  %4 = load i32, ptr @proto_pvfs, align 4
  %5 = tail call ptr @expert_register_protocol(i32 noundef %4)
  tail call void @expert_register_field_array(ptr noundef %5, ptr noundef nonnull @proto_register_pvfs.ei, i32 noundef 1)
  %6 = tail call ptr @wmem_epan_scope()
  %7 = tail call ptr @wmem_file_scope()
  %8 = tail call noalias ptr @wmem_map_new_autoreset(ptr noundef %6, ptr noundef %7, ptr noundef nonnull @pvfs2_io_tracking_hash, ptr noundef nonnull @pvfs2_io_tracking_equal)
  store ptr %8, ptr @pvfs2_io_tracking_value_table, align 8
  %9 = load i32, ptr @proto_pvfs, align 4
  %10 = tail call ptr @prefs_register_protocol(i32 noundef %9, ptr noundef null)
  tail call void @prefs_register_bool_preference(ptr noundef %10, ptr noundef nonnull @.str.248, ptr noundef nonnull @.str.249, ptr noundef nonnull @.str.250, ptr noundef nonnull @pvfs_desegment)
  ret void
}